; generated by Component: ARM Compiler 5.06 update 6 (build 750) Tool: ArmCC [4d3637]
; commandline ArmCC [--list --split_sections --debug -c --asm --interleave -o.\stm3210b-eval\stm3210b_eval.o --asm_dir=.\STM3210B-EVAL\ --list_dir=.\STM3210B-EVAL\ --depend=.\stm3210b-eval\stm3210b_eval.d --cpu=Cortex-M3 --apcs=interwork -O3 --diag_suppress=9931 -I..\inc -I..\..\..\Libraries\CMSIS\Device\ST\STM32F10x\Include -I..\..\..\Libraries\STM32_USB-FS-Device_Driver\inc -I..\..\..\Libraries\STM32F10x_StdPeriph_Driver\inc -I..\..\..\Utilities\STM32_EVAL -I..\..\..\Utilities\STM32_EVAL\Common -I..\..\..\Utilities\STM32_EVAL\STM3210B_EVAL -ID:\Keil5\ARM\RV31\INC -ID:\Keil5\ARM\CMSIS\Include -ID:\Keil5\ARM\INC\ST\STM32F10x -D__MICROLIB -D__UVISION_VERSION=526 -DUSE_STDPERIPH_DRIVER -DSTM32F10X_MD -DUSE_STM3210B_EVAL --omf_browse=.\stm3210b-eval\stm3210b_eval.crf ..\..\..\Utilities\STM32_EVAL\STM3210B_EVAL\stm3210b_eval.c]
                          THUMB

                          AREA ||i.LM75_LowLevel_DeInit||, CODE, READONLY, ALIGN=2

                  LM75_LowLevel_DeInit PROC
;;;547      */
;;;548    void LM75_LowLevel_DeInit(void)
000000  b538              PUSH     {r3-r5,lr}
;;;549    {
;;;550      GPIO_InitTypeDef  GPIO_InitStructure;
;;;551    
;;;552      /*!< Disable LM75_I2C */
;;;553      I2C_Cmd(LM75_I2C, DISABLE);
000002  4c13              LDR      r4,|L1.80|
000004  2100              MOVS     r1,#0
000006  4620              MOV      r0,r4
000008  f7fffffe          BL       I2C_Cmd
;;;554      /*!< DeInitializes the LM75_I2C */
;;;555      I2C_DeInit(LM75_I2C);
00000c  4620              MOV      r0,r4
00000e  f7fffffe          BL       I2C_DeInit
;;;556      
;;;557      /*!< LM75_I2C Periph clock disable */
;;;558      RCC_APB1PeriphClockCmd(LM75_I2C_CLK, DISABLE);
000012  2100              MOVS     r1,#0
000014  f44f1000          MOV      r0,#0x200000
000018  f7fffffe          BL       RCC_APB1PeriphClockCmd
;;;559        
;;;560      /*!< Configure LM75_I2C pins: SCL */
;;;561      GPIO_InitStructure.GPIO_Pin = LM75_I2C_SCL_PIN;
00001c  2040              MOVS     r0,#0x40
00001e  f8ad0000          STRH     r0,[sp,#0]
;;;562      GPIO_InitStructure.GPIO_Mode = GPIO_Mode_IN_FLOATING;
000022  2004              MOVS     r0,#4
;;;563      GPIO_Init(LM75_I2C_SCL_GPIO_PORT, &GPIO_InitStructure);
000024  4c0b              LDR      r4,|L1.84|
000026  f88d0003          STRB     r0,[sp,#3]            ;562
00002a  4669              MOV      r1,sp
00002c  4620              MOV      r0,r4
00002e  f7fffffe          BL       GPIO_Init
;;;564    
;;;565      /*!< Configure LM75_I2C pins: SDA */
;;;566      GPIO_InitStructure.GPIO_Pin = LM75_I2C_SDA_PIN;
000032  2080              MOVS     r0,#0x80
000034  f8ad0000          STRH     r0,[sp,#0]
;;;567      GPIO_Init(LM75_I2C_SDA_GPIO_PORT, &GPIO_InitStructure);
000038  4669              MOV      r1,sp
00003a  4620              MOV      r0,r4
00003c  f7fffffe          BL       GPIO_Init
;;;568    
;;;569      /*!< Configure LM75_I2C pin: SMBUS ALERT */
;;;570      GPIO_InitStructure.GPIO_Pin = LM75_I2C_SMBUSALERT_PIN;
000040  2020              MOVS     r0,#0x20
000042  f8ad0000          STRH     r0,[sp,#0]
;;;571      GPIO_Init(LM75_I2C_SMBUSALERT_GPIO_PORT, &GPIO_InitStructure);
000046  4669              MOV      r1,sp
000048  4620              MOV      r0,r4
00004a  f7fffffe          BL       GPIO_Init
;;;572    }
00004e  bd38              POP      {r3-r5,pc}
;;;573    
                          ENDP

                  |L1.80|
                          DCD      0x40005400
                  |L1.84|
                          DCD      0x40010c00

                          AREA ||i.LM75_LowLevel_Init||, CODE, READONLY, ALIGN=2

                  LM75_LowLevel_Init PROC
;;;578      */
;;;579    void LM75_LowLevel_Init(void)
000000  b538              PUSH     {r3-r5,lr}
;;;580    {
;;;581      GPIO_InitTypeDef  GPIO_InitStructure;
;;;582    
;;;583      /*!< LM75_I2C Periph clock enable */
;;;584      RCC_APB1PeriphClockCmd(LM75_I2C_CLK, ENABLE);
000002  2101              MOVS     r1,#1
000004  0548              LSLS     r0,r1,#21
000006  f7fffffe          BL       RCC_APB1PeriphClockCmd
;;;585        
;;;586      /*!< LM75_I2C_SCL_GPIO_CLK, LM75_I2C_SDA_GPIO_CLK 
;;;587           and LM75_I2C_SMBUSALERT_GPIO_CLK Periph clock enable */
;;;588      RCC_APB2PeriphClockCmd(LM75_I2C_SCL_GPIO_CLK | LM75_I2C_SDA_GPIO_CLK |
00000a  2101              MOVS     r1,#1
00000c  2008              MOVS     r0,#8
00000e  f7fffffe          BL       RCC_APB2PeriphClockCmd
;;;589                             LM75_I2C_SMBUSALERT_GPIO_CLK, ENABLE);
;;;590      
;;;591      /*!< Configure LM75_I2C pins: SCL */
;;;592      GPIO_InitStructure.GPIO_Pin = LM75_I2C_SCL_PIN;
000012  2040              MOVS     r0,#0x40
000014  f8ad0000          STRH     r0,[sp,#0]
;;;593      GPIO_InitStructure.GPIO_Speed = GPIO_Speed_50MHz;
000018  2003              MOVS     r0,#3
00001a  f88d0002          STRB     r0,[sp,#2]
;;;594      GPIO_InitStructure.GPIO_Mode = GPIO_Mode_AF_OD;
00001e  201c              MOVS     r0,#0x1c
;;;595      GPIO_Init(LM75_I2C_SCL_GPIO_PORT, &GPIO_InitStructure);
000020  4c0c              LDR      r4,|L2.84|
000022  f88d0003          STRB     r0,[sp,#3]            ;594
000026  4669              MOV      r1,sp
000028  4620              MOV      r0,r4
00002a  f7fffffe          BL       GPIO_Init
;;;596    
;;;597      /*!< Configure LM75_I2C pins: SDA */
;;;598      GPIO_InitStructure.GPIO_Pin = LM75_I2C_SDA_PIN;
00002e  2080              MOVS     r0,#0x80
000030  f8ad0000          STRH     r0,[sp,#0]
;;;599      GPIO_Init(LM75_I2C_SDA_GPIO_PORT, &GPIO_InitStructure);
000034  4669              MOV      r1,sp
000036  4620              MOV      r0,r4
000038  f7fffffe          BL       GPIO_Init
;;;600    
;;;601      /*!< Configure LM75_I2C pin: SMBUS ALERT */
;;;602      GPIO_InitStructure.GPIO_Pin = LM75_I2C_SMBUSALERT_PIN;
00003c  2020              MOVS     r0,#0x20
00003e  f8ad0000          STRH     r0,[sp,#0]
;;;603      GPIO_InitStructure.GPIO_Mode = GPIO_Mode_IPU;
000042  2048              MOVS     r0,#0x48
000044  f88d0003          STRB     r0,[sp,#3]
;;;604      GPIO_Init(LM75_I2C_SMBUSALERT_GPIO_PORT, &GPIO_InitStructure); 
000048  4669              MOV      r1,sp
00004a  4620              MOV      r0,r4
00004c  f7fffffe          BL       GPIO_Init
;;;605    }
000050  bd38              POP      {r3-r5,pc}
;;;606      
                          ENDP

000052  0000              DCW      0x0000
                  |L2.84|
                          DCD      0x40010c00

                          AREA ||i.SD_LowLevel_DeInit||, CODE, READONLY, ALIGN=2

                  SD_LowLevel_DeInit PROC
;;;377      */
;;;378    void SD_LowLevel_DeInit(void)
000000  b5f8              PUSH     {r3-r7,lr}
;;;379    {
;;;380      GPIO_InitTypeDef  GPIO_InitStructure;
;;;381      
;;;382      SPI_Cmd(SD_SPI, DISABLE); /*!< SD_SPI disable */
000002  4c19              LDR      r4,|L3.104|
000004  2100              MOVS     r1,#0
000006  4620              MOV      r0,r4
000008  f7fffffe          BL       SPI_Cmd
;;;383      SPI_I2S_DeInit(SD_SPI);   /*!< DeInitializes the SD_SPI */
00000c  4620              MOV      r0,r4
00000e  f7fffffe          BL       SPI_I2S_DeInit
;;;384      
;;;385      /*!< SD_SPI Periph clock disable */
;;;386      RCC_APB2PeriphClockCmd(SD_SPI_CLK, DISABLE); 
000012  14a5              ASRS     r5,r4,#18
000014  2100              MOVS     r1,#0
000016  4628              MOV      r0,r5
000018  f7fffffe          BL       RCC_APB2PeriphClockCmd
;;;387      
;;;388      /*!< Configure SD_SPI pins: SCK */
;;;389      GPIO_InitStructure.GPIO_Pin = SD_SPI_SCK_PIN;
00001c  2020              MOVS     r0,#0x20
00001e  f8ad0000          STRH     r0,[sp,#0]
;;;390      GPIO_InitStructure.GPIO_Mode = GPIO_Mode_IN_FLOATING;
000022  2004              MOVS     r0,#4
;;;391      GPIO_Init(SD_SPI_SCK_GPIO_PORT, &GPIO_InitStructure);
000024  4e11              LDR      r6,|L3.108|
000026  f88d0003          STRB     r0,[sp,#3]            ;390
00002a  4669              MOV      r1,sp
00002c  4630              MOV      r0,r6
00002e  f7fffffe          BL       GPIO_Init
;;;392    
;;;393      /*!< Configure SD_SPI pins: MISO */
;;;394      GPIO_InitStructure.GPIO_Pin = SD_SPI_MISO_PIN;
000032  2040              MOVS     r0,#0x40
000034  f8ad0000          STRH     r0,[sp,#0]
;;;395      GPIO_Init(SD_SPI_MISO_GPIO_PORT, &GPIO_InitStructure);
000038  4669              MOV      r1,sp
00003a  4630              MOV      r0,r6
00003c  f7fffffe          BL       GPIO_Init
;;;396    
;;;397      /*!< Configure SD_SPI pins: MOSI */
;;;398      GPIO_InitStructure.GPIO_Pin = SD_SPI_MOSI_PIN;
000040  2480              MOVS     r4,#0x80
000042  f8ad4000          STRH     r4,[sp,#0]
;;;399      GPIO_Init(SD_SPI_MOSI_GPIO_PORT, &GPIO_InitStructure);
000046  4669              MOV      r1,sp
000048  4630              MOV      r0,r6
00004a  f7fffffe          BL       GPIO_Init
;;;400    
;;;401      /*!< Configure SD_SPI_CS_PIN pin: SD Card CS pin */
;;;402      GPIO_InitStructure.GPIO_Pin = SD_CS_PIN;
00004e  f8ad5000          STRH     r5,[sp,#0]
;;;403      GPIO_Init(SD_CS_GPIO_PORT, &GPIO_InitStructure);
000052  4669              MOV      r1,sp
000054  4806              LDR      r0,|L3.112|
000056  f7fffffe          BL       GPIO_Init
;;;404    
;;;405      /*!< Configure SD_SPI_DETECT_PIN pin: SD Card detect pin */
;;;406      GPIO_InitStructure.GPIO_Pin = SD_DETECT_PIN;
00005a  f8ad4000          STRH     r4,[sp,#0]
;;;407      GPIO_Init(SD_DETECT_GPIO_PORT, &GPIO_InitStructure);
00005e  4669              MOV      r1,sp
000060  4804              LDR      r0,|L3.116|
000062  f7fffffe          BL       GPIO_Init
;;;408    }
000066  bdf8              POP      {r3-r7,pc}
;;;409    
                          ENDP

                  |L3.104|
                          DCD      0x40013000
                  |L3.108|
                          DCD      0x40010800
                  |L3.112|
                          DCD      0x40011000
                  |L3.116|
                          DCD      0x40011800

                          AREA ||i.SD_LowLevel_Init||, CODE, READONLY, ALIGN=2

                  SD_LowLevel_Init PROC
;;;414      */
;;;415    void SD_LowLevel_Init(void)
000000  b570              PUSH     {r4-r6,lr}
;;;416    {
000002  b086              SUB      sp,sp,#0x18
;;;417      GPIO_InitTypeDef  GPIO_InitStructure;
;;;418      SPI_InitTypeDef   SPI_InitStructure;
;;;419    
;;;420      /*!< SD_SPI_CS_GPIO, SD_SPI_MOSI_GPIO, SD_SPI_MISO_GPIO, SD_SPI_DETECT_GPIO 
;;;421           and SD_SPI_SCK_GPIO Periph clock enable */
;;;422      RCC_APB2PeriphClockCmd(SD_CS_GPIO_CLK | SD_SPI_MOSI_GPIO_CLK | SD_SPI_MISO_GPIO_CLK |
000004  2101              MOVS     r1,#1
000006  2054              MOVS     r0,#0x54
000008  f7fffffe          BL       RCC_APB2PeriphClockCmd
;;;423                             SD_SPI_SCK_GPIO_CLK | SD_DETECT_GPIO_CLK, ENABLE);
;;;424    
;;;425      /*!< SD_SPI Periph clock enable */
;;;426      RCC_APB2PeriphClockCmd(SD_SPI_CLK, ENABLE); 
00000c  2101              MOVS     r1,#1
00000e  030d              LSLS     r5,r1,#12
000010  4628              MOV      r0,r5
000012  f7fffffe          BL       RCC_APB2PeriphClockCmd
;;;427    
;;;428      
;;;429      /*!< Configure SD_SPI pins: SCK */
;;;430      GPIO_InitStructure.GPIO_Pin = SD_SPI_SCK_PIN;
000016  2020              MOVS     r0,#0x20
000018  f8ad0000          STRH     r0,[sp,#0]
;;;431      GPIO_InitStructure.GPIO_Speed = GPIO_Speed_50MHz;
00001c  2003              MOVS     r0,#3
00001e  f88d0002          STRB     r0,[sp,#2]
;;;432      GPIO_InitStructure.GPIO_Mode = GPIO_Mode_AF_PP;
000022  2018              MOVS     r0,#0x18
;;;433      GPIO_Init(SD_SPI_SCK_GPIO_PORT, &GPIO_InitStructure);
000024  4e27              LDR      r6,|L4.196|
000026  f88d0003          STRB     r0,[sp,#3]            ;432
00002a  4669              MOV      r1,sp
00002c  4630              MOV      r0,r6
00002e  f7fffffe          BL       GPIO_Init
;;;434    
;;;435      /*!< Configure SD_SPI pins: MOSI */
;;;436      GPIO_InitStructure.GPIO_Pin = SD_SPI_MOSI_PIN;
000032  2480              MOVS     r4,#0x80
000034  f8ad4000          STRH     r4,[sp,#0]
;;;437      GPIO_Init(SD_SPI_MOSI_GPIO_PORT, &GPIO_InitStructure);
000038  4669              MOV      r1,sp
00003a  4630              MOV      r0,r6
00003c  f7fffffe          BL       GPIO_Init
;;;438    
;;;439      /*!< Configure SD_SPI pins: MISO */
;;;440      GPIO_InitStructure.GPIO_Pin = SD_SPI_MISO_PIN;
000040  2040              MOVS     r0,#0x40
000042  f8ad0000          STRH     r0,[sp,#0]
;;;441      GPIO_InitStructure.GPIO_Mode = GPIO_Mode_IN_FLOATING;  
000046  2004              MOVS     r0,#4
000048  f88d0003          STRB     r0,[sp,#3]
;;;442      GPIO_Init(SD_SPI_MISO_GPIO_PORT, &GPIO_InitStructure);
00004c  4669              MOV      r1,sp
00004e  4630              MOV      r0,r6
000050  f7fffffe          BL       GPIO_Init
;;;443      
;;;444      /*!< Configure SD_SPI_CS_PIN pin: SD Card CS pin */
;;;445      GPIO_InitStructure.GPIO_Pin = SD_CS_PIN;
000054  f8ad5000          STRH     r5,[sp,#0]
;;;446      GPIO_InitStructure.GPIO_Mode = GPIO_Mode_Out_PP;
000058  2010              MOVS     r0,#0x10
00005a  f88d0003          STRB     r0,[sp,#3]
;;;447      GPIO_Init(SD_CS_GPIO_PORT, &GPIO_InitStructure);
00005e  4669              MOV      r1,sp
000060  4819              LDR      r0,|L4.200|
000062  f7fffffe          BL       GPIO_Init
;;;448    
;;;449      /*!< Configure SD_SPI_DETECT_PIN pin: SD Card detect pin */
;;;450      GPIO_InitStructure.GPIO_Pin = SD_DETECT_PIN;
000066  f8ad4000          STRH     r4,[sp,#0]
;;;451      GPIO_InitStructure.GPIO_Mode = GPIO_Mode_IPU;
00006a  2048              MOVS     r0,#0x48
00006c  f88d0003          STRB     r0,[sp,#3]
;;;452      GPIO_Init(SD_DETECT_GPIO_PORT, &GPIO_InitStructure);
000070  4669              MOV      r1,sp
000072  4816              LDR      r0,|L4.204|
000074  f7fffffe          BL       GPIO_Init
;;;453    
;;;454      /*!< SD_SPI Config */
;;;455      SPI_InitStructure.SPI_Direction = SPI_Direction_2Lines_FullDuplex;
000078  2000              MOVS     r0,#0
00007a  f8ad0004          STRH     r0,[sp,#4]
;;;456      SPI_InitStructure.SPI_Mode = SPI_Mode_Master;
00007e  f44f7182          MOV      r1,#0x104
000082  f8ad1006          STRH     r1,[sp,#6]
;;;457      SPI_InitStructure.SPI_DataSize = SPI_DataSize_8b;
000086  f8ad0008          STRH     r0,[sp,#8]
;;;458      SPI_InitStructure.SPI_CPOL = SPI_CPOL_High;
00008a  2102              MOVS     r1,#2
00008c  f8ad100a          STRH     r1,[sp,#0xa]
;;;459      SPI_InitStructure.SPI_CPHA = SPI_CPHA_2Edge;
000090  2101              MOVS     r1,#1
000092  f8ad100c          STRH     r1,[sp,#0xc]
;;;460      SPI_InitStructure.SPI_NSS = SPI_NSS_Soft;
000096  0249              LSLS     r1,r1,#9
000098  f8ad100e          STRH     r1,[sp,#0xe]
;;;461      SPI_InitStructure.SPI_BaudRatePrescaler = SPI_BaudRatePrescaler_4;
00009c  2108              MOVS     r1,#8
00009e  f8ad1010          STRH     r1,[sp,#0x10]
;;;462      SPI_InitStructure.SPI_FirstBit = SPI_FirstBit_MSB;
0000a2  f8ad0012          STRH     r0,[sp,#0x12]
;;;463      SPI_InitStructure.SPI_CRCPolynomial = 7;
0000a6  2007              MOVS     r0,#7
;;;464      SPI_Init(SD_SPI, &SPI_InitStructure);
0000a8  4c09              LDR      r4,|L4.208|
0000aa  f8ad0014          STRH     r0,[sp,#0x14]         ;463
0000ae  a901              ADD      r1,sp,#4
0000b0  4620              MOV      r0,r4
0000b2  f7fffffe          BL       SPI_Init
;;;465      
;;;466      SPI_Cmd(SD_SPI, ENABLE); /*!< SD_SPI enable */
0000b6  2101              MOVS     r1,#1
0000b8  4620              MOV      r0,r4
0000ba  f7fffffe          BL       SPI_Cmd
;;;467    }
0000be  b006              ADD      sp,sp,#0x18
0000c0  bd70              POP      {r4-r6,pc}
;;;468    
                          ENDP

0000c2  0000              DCW      0x0000
                  |L4.196|
                          DCD      0x40010800
                  |L4.200|
                          DCD      0x40011000
                  |L4.204|
                          DCD      0x40011800
                  |L4.208|
                          DCD      0x40013000

                          AREA ||i.STM_EVAL_COMInit||, CODE, READONLY, ALIGN=2

                  STM_EVAL_COMInit PROC
;;;335      */
;;;336    void STM_EVAL_COMInit(COM_TypeDef COM, USART_InitTypeDef* USART_InitStruct)
000000  b5f8              PUSH     {r3-r7,lr}
;;;337    {
000002  460e              MOV      r6,r1
000004  4604              MOV      r4,r0
;;;338      GPIO_InitTypeDef GPIO_InitStructure;
;;;339    
;;;340      /* Enable GPIO clock */
;;;341      RCC_APB2PeriphClockCmd(COM_TX_PORT_CLK[COM] | COM_RX_PORT_CLK[COM] | RCC_APB2Periph_AFIO, ENABLE);
000006  4927              LDR      r1,|L5.164|
000008  4826              LDR      r0,|L5.164|
00000a  3108              ADDS     r1,r1,#8
00000c  f8500024          LDR      r0,[r0,r4,LSL #2]
000010  f8511024          LDR      r1,[r1,r4,LSL #2]
000014  4308              ORRS     r0,r0,r1
000016  f0400001          ORR      r0,r0,#1
00001a  2101              MOVS     r1,#1
00001c  f7fffffe          BL       RCC_APB2PeriphClockCmd
;;;342    
;;;343      if (COM == COM1)
;;;344      {
;;;345        RCC_APB2PeriphClockCmd(COM_USART_CLK[COM], ENABLE); 
000020  4d20              LDR      r5,|L5.164|
000022  3d08              SUBS     r5,r5,#8
000024  b3bc              CBZ      r4,|L5.150|
;;;346      }
;;;347      else
;;;348      {
;;;349        /* Enable the USART2 Pins Software Remapping */
;;;350        GPIO_PinRemapConfig(GPIO_Remap_USART2, ENABLE);
000026  2101              MOVS     r1,#1
000028  2008              MOVS     r0,#8
00002a  f7fffffe          BL       GPIO_PinRemapConfig
;;;351        RCC_APB1PeriphClockCmd(COM_USART_CLK[COM], ENABLE);
00002e  f8550024          LDR      r0,[r5,r4,LSL #2]
000032  2101              MOVS     r1,#1
000034  f7fffffe          BL       RCC_APB1PeriphClockCmd
                  |L5.56|
;;;352      }
;;;353    
;;;354      /* Configure USART Tx as alternate function push-pull */
;;;355      GPIO_InitStructure.GPIO_Mode = GPIO_Mode_AF_PP;
000038  2018              MOVS     r0,#0x18
00003a  f88d0003          STRB     r0,[sp,#3]
;;;356      GPIO_InitStructure.GPIO_Pin = COM_TX_PIN[COM];
00003e  4819              LDR      r0,|L5.164|
;;;357      GPIO_InitStructure.GPIO_Speed = GPIO_Speed_50MHz;
;;;358      GPIO_Init(COM_TX_PORT[COM], &GPIO_InitStructure);
000040  4669              MOV      r1,sp
000042  3818              SUBS     r0,r0,#0x18           ;356
000044  f8300014          LDRH     r0,[r0,r4,LSL #1]     ;356
000048  f8ad0000          STRH     r0,[sp,#0]            ;356
00004c  2003              MOVS     r0,#3                 ;357
00004e  f88d0002          STRB     r0,[sp,#2]            ;357
000052  4815              LDR      r0,|L5.168|
000054  f8500024          LDR      r0,[r0,r4,LSL #2]
000058  f7fffffe          BL       GPIO_Init
;;;359    
;;;360    
;;;361      /* Configure USART Rx as input floating */
;;;362      GPIO_InitStructure.GPIO_Mode = GPIO_Mode_IN_FLOATING;
00005c  2004              MOVS     r0,#4
00005e  f88d0003          STRB     r0,[sp,#3]
;;;363      GPIO_InitStructure.GPIO_Pin = COM_RX_PIN[COM];
000062  4810              LDR      r0,|L5.164|
;;;364      GPIO_Init(COM_RX_PORT[COM], &GPIO_InitStructure);
000064  4669              MOV      r1,sp
000066  3814              SUBS     r0,r0,#0x14           ;363
000068  f8300014          LDRH     r0,[r0,r4,LSL #1]     ;363
00006c  f8ad0000          STRH     r0,[sp,#0]            ;363
000070  480d              LDR      r0,|L5.168|
000072  3008              ADDS     r0,r0,#8
000074  f8500024          LDR      r0,[r0,r4,LSL #2]
000078  f7fffffe          BL       GPIO_Init
;;;365    
;;;366      /* USART configuration */
;;;367      USART_Init(COM_USART[COM], USART_InitStruct);
00007c  4d0a              LDR      r5,|L5.168|
00007e  4631              MOV      r1,r6
000080  3d08              SUBS     r5,r5,#8
000082  f8550024          LDR      r0,[r5,r4,LSL #2]
000086  f7fffffe          BL       USART_Init
;;;368        
;;;369      /* Enable USART */
;;;370      USART_Cmd(COM_USART[COM], ENABLE);
00008a  f8550024          LDR      r0,[r5,r4,LSL #2]
00008e  2101              MOVS     r1,#1
000090  f7fffffe          BL       USART_Cmd
;;;371    }
000094  bdf8              POP      {r3-r7,pc}
                  |L5.150|
000096  e7ff              B        |L5.152|
                  |L5.152|
000098  2101              MOVS     r1,#1                 ;345
00009a  6828              LDR      r0,[r5,#0]            ;345
00009c  f7fffffe          BL       RCC_APB2PeriphClockCmd
0000a0  e7ca              B        |L5.56|
;;;372    
                          ENDP

0000a2  0000              DCW      0x0000
                  |L5.164|
                          DCD      ||.constdata||+0x18
                  |L5.168|
                          DCD      ||.data||+0x8

                          AREA ||i.STM_EVAL_LEDInit||, CODE, READONLY, ALIGN=2

                  STM_EVAL_LEDInit PROC
;;;180      */
;;;181    void STM_EVAL_LEDInit(Led_TypeDef Led)
000000  b538              PUSH     {r3-r5,lr}
;;;182    {
000002  4604              MOV      r4,r0
;;;183      GPIO_InitTypeDef  GPIO_InitStructure;
;;;184      
;;;185      /* Enable the GPIO_LED Clock */
;;;186      RCC_APB2PeriphClockCmd(GPIO_CLK[Led], ENABLE);
000004  480c              LDR      r0,|L6.56|
000006  2101              MOVS     r1,#1
000008  f8500024          LDR      r0,[r0,r4,LSL #2]
00000c  f7fffffe          BL       RCC_APB2PeriphClockCmd
;;;187    
;;;188      /* Configure the GPIO_LED pin */
;;;189      GPIO_InitStructure.GPIO_Pin = GPIO_PIN[Led];
000010  4809              LDR      r0,|L6.56|
;;;190      GPIO_InitStructure.GPIO_Mode = GPIO_Mode_Out_PP;
;;;191      GPIO_InitStructure.GPIO_Speed = GPIO_Speed_50MHz;
;;;192    
;;;193      GPIO_Init(GPIO_PORT[Led], &GPIO_InitStructure);
000012  4669              MOV      r1,sp
000014  3820              SUBS     r0,r0,#0x20           ;189
000016  f8300014          LDRH     r0,[r0,r4,LSL #1]     ;189
00001a  f8ad0000          STRH     r0,[sp,#0]            ;189
00001e  2010              MOVS     r0,#0x10              ;190
000020  f88d0003          STRB     r0,[sp,#3]            ;190
000024  2003              MOVS     r0,#3                 ;191
000026  f88d0002          STRB     r0,[sp,#2]            ;191
00002a  4804              LDR      r0,|L6.60|
00002c  f8500024          LDR      r0,[r0,r4,LSL #2]
000030  f7fffffe          BL       GPIO_Init
;;;194    }
000034  bd38              POP      {r3-r5,pc}
;;;195    
                          ENDP

000036  0000              DCW      0x0000
                  |L6.56|
                          DCD      ||.constdata||+0x28
                  |L6.60|
                          DCD      ||.data||+0x18

                          AREA ||i.STM_EVAL_LEDOff||, CODE, READONLY, ALIGN=2

                  STM_EVAL_LEDOff PROC
;;;220      */
;;;221    void STM_EVAL_LEDOff(Led_TypeDef Led)
000000  4903              LDR      r1,|L7.16|
;;;222    {
;;;223      GPIO_PORT[Led]->BRR = GPIO_PIN[Led];  
000002  4a04              LDR      r2,|L7.20|
000004  f8311010          LDRH     r1,[r1,r0,LSL #1]
000008  f8520020          LDR      r0,[r2,r0,LSL #2]
00000c  6141              STR      r1,[r0,#0x14]
;;;224    }
00000e  4770              BX       lr
;;;225    
                          ENDP

                  |L7.16|
                          DCD      ||.constdata||+0x8
                  |L7.20|
                          DCD      ||.data||+0x18

                          AREA ||i.STM_EVAL_LEDOn||, CODE, READONLY, ALIGN=2

                  STM_EVAL_LEDOn PROC
;;;205      */
;;;206    void STM_EVAL_LEDOn(Led_TypeDef Led)
000000  4903              LDR      r1,|L8.16|
;;;207    {
;;;208      GPIO_PORT[Led]->BSRR = GPIO_PIN[Led];     
000002  4a04              LDR      r2,|L8.20|
000004  f8311010          LDRH     r1,[r1,r0,LSL #1]
000008  f8520020          LDR      r0,[r2,r0,LSL #2]
00000c  6101              STR      r1,[r0,#0x10]
;;;209    }
00000e  4770              BX       lr
;;;210    
                          ENDP

                  |L8.16|
                          DCD      ||.constdata||+0x8
                  |L8.20|
                          DCD      ||.data||+0x18

                          AREA ||i.STM_EVAL_LEDToggle||, CODE, READONLY, ALIGN=2

                  STM_EVAL_LEDToggle PROC
;;;235      */
;;;236    void STM_EVAL_LEDToggle(Led_TypeDef Led)
000000  4904              LDR      r1,|L9.20|
;;;237    {
;;;238      GPIO_PORT[Led]->ODR ^= GPIO_PIN[Led];
000002  f8511020          LDR      r1,[r1,r0,LSL #2]
000006  68ca              LDR      r2,[r1,#0xc]
000008  4b03              LDR      r3,|L9.24|
00000a  f8330010          LDRH     r0,[r3,r0,LSL #1]
00000e  4042              EORS     r2,r2,r0
000010  60ca              STR      r2,[r1,#0xc]
;;;239    }
000012  4770              BX       lr
;;;240    
                          ENDP

                  |L9.20|
                          DCD      ||.data||+0x18
                  |L9.24|
                          DCD      ||.constdata||+0x8

                          AREA ||i.STM_EVAL_PBGetState||, CODE, READONLY, ALIGN=2

                  STM_EVAL_PBGetState PROC
;;;320      */
;;;321    uint32_t STM_EVAL_PBGetState(Button_TypeDef Button)
000000  4903              LDR      r1,|L10.16|
;;;322    {
;;;323      return GPIO_ReadInputDataBit(BUTTON_PORT[Button], BUTTON_PIN[Button]);
000002  4a04              LDR      r2,|L10.20|
000004  f8311010          LDRH     r1,[r1,r0,LSL #1]
000008  f8520020          LDR      r0,[r2,r0,LSL #2]
00000c  f7ffbffe          B.W      GPIO_ReadInputDataBit
;;;324    }
;;;325    
                          ENDP

                  |L10.16|
                          DCD      ||.constdata||+0x38
                  |L10.20|
                          DCD      ||.data||+0x28

                          AREA ||i.STM_EVAL_PBInit||, CODE, READONLY, ALIGN=2

                  STM_EVAL_PBInit PROC
;;;259      */
;;;260    void STM_EVAL_PBInit(Button_TypeDef Button, ButtonMode_TypeDef Button_Mode)
000000  b57f              PUSH     {r0-r6,lr}
;;;261    {
000002  4604              MOV      r4,r0
;;;262      GPIO_InitTypeDef GPIO_InitStructure;
;;;263      EXTI_InitTypeDef EXTI_InitStructure;
;;;264      NVIC_InitTypeDef NVIC_InitStructure;
;;;265    
;;;266      /* Enable the BUTTON Clock */
;;;267      RCC_APB2PeriphClockCmd(BUTTON_CLK[Button] | RCC_APB2Periph_AFIO, ENABLE);
000004  4825              LDR      r0,|L11.156|
000006  460d              MOV      r5,r1                 ;261
000008  2101              MOVS     r1,#1
00000a  f8500024          LDR      r0,[r0,r4,LSL #2]
00000e  f0400001          ORR      r0,r0,#1
000012  f7fffffe          BL       RCC_APB2PeriphClockCmd
;;;268    
;;;269      /* Configure Button pin as input floating */
;;;270      if(Button == BUTTON_WAKEUP)
000016  b32c              CBZ      r4,|L11.100|
;;;271    	GPIO_InitStructure.GPIO_Mode = GPIO_Mode_IPD;
;;;272      else
;;;273    	GPIO_InitStructure.GPIO_Mode = GPIO_Mode_IN_FLOATING;
000018  f05f0004          MOVS.W   r0,#4
                  |L11.28|
00001c  f88d000f          STRB     r0,[sp,#0xf]
;;;274      GPIO_InitStructure.GPIO_Pin = BUTTON_PIN[Button];
000020  481e              LDR      r0,|L11.156|
;;;275      GPIO_Init(BUTTON_PORT[Button], &GPIO_InitStructure);
000022  a903              ADD      r1,sp,#0xc
000024  3810              SUBS     r0,r0,#0x10           ;274
000026  f8300014          LDRH     r0,[r0,r4,LSL #1]     ;274
00002a  f8ad000c          STRH     r0,[sp,#0xc]          ;274
00002e  481c              LDR      r0,|L11.160|
000030  f8500024          LDR      r0,[r0,r4,LSL #2]
000034  f7fffffe          BL       GPIO_Init
;;;276    
;;;277      if (Button_Mode == BUTTON_MODE_EXTI)
000038  2d01              CMP      r5,#1
00003a  d12e              BNE      |L11.154|
;;;278      {
;;;279        /* Connect Button EXTI Line to Button GPIO Pin */
;;;280        GPIO_EXTILineConfig(BUTTON_PORT_SOURCE[Button], BUTTON_PIN_SOURCE[Button]);
00003c  4817              LDR      r0,|L11.156|
00003e  3040              ADDS     r0,r0,#0x40
000040  f8101014          LDRB     r1,[r0,r4,LSL #1]
000044  3810              SUBS     r0,r0,#0x10
000046  f8100014          LDRB     r0,[r0,r4,LSL #1]
00004a  f7fffffe          BL       GPIO_EXTILineConfig
;;;281    
;;;282        /* Configure Button EXTI line */
;;;283        EXTI_InitStructure.EXTI_Line = BUTTON_EXTI_LINE[Button];
00004e  4813              LDR      r0,|L11.156|
000050  3020              ADDS     r0,r0,#0x20
000052  f8300014          LDRH     r0,[r0,r4,LSL #1]
;;;284        EXTI_InitStructure.EXTI_Mode = EXTI_Mode_Interrupt;
000056  9000              STR      r0,[sp,#0]
000058  2000              MOVS     r0,#0
00005a  f88d0004          STRB     r0,[sp,#4]
;;;285    
;;;286        if(Button != BUTTON_WAKEUP)
00005e  b11c              CBZ      r4,|L11.104|
;;;287        {
;;;288          EXTI_InitStructure.EXTI_Trigger = EXTI_Trigger_Falling;  
000060  200c              MOVS     r0,#0xc
000062  e002              B        |L11.106|
                  |L11.100|
000064  2028              MOVS     r0,#0x28              ;271
000066  e7d9              B        |L11.28|
                  |L11.104|
;;;289        }
;;;290        else
;;;291        {
;;;292          EXTI_InitStructure.EXTI_Trigger = EXTI_Trigger_Rising;  
000068  2008              MOVS     r0,#8
                  |L11.106|
00006a  f88d0005          STRB     r0,[sp,#5]
;;;293        }
;;;294        EXTI_InitStructure.EXTI_LineCmd = ENABLE;
00006e  2501              MOVS     r5,#1
000070  f88d5006          STRB     r5,[sp,#6]
;;;295        EXTI_Init(&EXTI_InitStructure);
000074  4668              MOV      r0,sp
000076  f7fffffe          BL       EXTI_Init
;;;296    
;;;297        /* Enable and set Button EXTI Interrupt to the lowest priority */
;;;298        NVIC_InitStructure.NVIC_IRQChannel = BUTTON_IRQn[Button];
00007a  4808              LDR      r0,|L11.156|
00007c  3050              ADDS     r0,r0,#0x50
00007e  f8100014          LDRB     r0,[r0,r4,LSL #1]
000082  f88d0008          STRB     r0,[sp,#8]
;;;299        NVIC_InitStructure.NVIC_IRQChannelPreemptionPriority = 0x0F;
000086  200f              MOVS     r0,#0xf
000088  f88d0009          STRB     r0,[sp,#9]
;;;300        NVIC_InitStructure.NVIC_IRQChannelSubPriority = 0x0F;
00008c  f88d000a          STRB     r0,[sp,#0xa]
;;;301        NVIC_InitStructure.NVIC_IRQChannelCmd = ENABLE;
000090  f88d500b          STRB     r5,[sp,#0xb]
;;;302    
;;;303        NVIC_Init(&NVIC_InitStructure); 
000094  a802              ADD      r0,sp,#8
000096  f7fffffe          BL       NVIC_Init
                  |L11.154|
;;;304      }
;;;305    }
00009a  bd7f              POP      {r0-r6,pc}
;;;306    
                          ENDP

                  |L11.156|
                          DCD      ||.constdata||+0x48
                  |L11.160|
                          DCD      ||.data||+0x28

                          AREA ||i.sFLASH_LowLevel_DeInit||, CODE, READONLY, ALIGN=2

                  sFLASH_LowLevel_DeInit PROC
;;;473      */
;;;474    void sFLASH_LowLevel_DeInit(void)
000000  b538              PUSH     {r3-r5,lr}
;;;475    {
;;;476      GPIO_InitTypeDef GPIO_InitStructure;
;;;477    
;;;478      /*!< Disable the sFLASH_SPI  */
;;;479      SPI_Cmd(sFLASH_SPI, DISABLE);
000002  4c16              LDR      r4,|L12.92|
000004  2100              MOVS     r1,#0
000006  4620              MOV      r0,r4
000008  f7fffffe          BL       SPI_Cmd
;;;480      
;;;481      /*!< DeInitializes the sFLASH_SPI */
;;;482      SPI_I2S_DeInit(sFLASH_SPI);
00000c  4620              MOV      r0,r4
00000e  f7fffffe          BL       SPI_I2S_DeInit
;;;483      
;;;484      /*!< sFLASH_SPI Periph clock disable */
;;;485      RCC_APB2PeriphClockCmd(sFLASH_SPI_CLK, DISABLE);
000012  2100              MOVS     r1,#0
000014  14a0              ASRS     r0,r4,#18
000016  f7fffffe          BL       RCC_APB2PeriphClockCmd
;;;486      
;;;487      /*!< Configure sFLASH_SPI pins: SCK */
;;;488      GPIO_InitStructure.GPIO_Pin = sFLASH_SPI_SCK_PIN;
00001a  2020              MOVS     r0,#0x20
00001c  f8ad0000          STRH     r0,[sp,#0]
;;;489      GPIO_InitStructure.GPIO_Mode = GPIO_Mode_IN_FLOATING;
000020  2004              MOVS     r0,#4
;;;490      GPIO_Init(sFLASH_SPI_SCK_GPIO_PORT, &GPIO_InitStructure);
000022  4c0f              LDR      r4,|L12.96|
000024  f88d0003          STRB     r0,[sp,#3]            ;489
000028  4669              MOV      r1,sp
00002a  4620              MOV      r0,r4
00002c  f7fffffe          BL       GPIO_Init
;;;491    
;;;492      /*!< Configure sFLASH_SPI pins: MISO */
;;;493      GPIO_InitStructure.GPIO_Pin = sFLASH_SPI_MISO_PIN;
000030  2040              MOVS     r0,#0x40
000032  f8ad0000          STRH     r0,[sp,#0]
;;;494      GPIO_Init(sFLASH_SPI_MISO_GPIO_PORT, &GPIO_InitStructure);
000036  4669              MOV      r1,sp
000038  4620              MOV      r0,r4
00003a  f7fffffe          BL       GPIO_Init
;;;495    
;;;496      /*!< Configure sFLASH_SPI pins: MOSI */
;;;497      GPIO_InitStructure.GPIO_Pin = sFLASH_SPI_MOSI_PIN;
00003e  2080              MOVS     r0,#0x80
000040  f8ad0000          STRH     r0,[sp,#0]
;;;498      GPIO_Init(sFLASH_SPI_MOSI_GPIO_PORT, &GPIO_InitStructure);
000044  4669              MOV      r1,sp
000046  4620              MOV      r0,r4
000048  f7fffffe          BL       GPIO_Init
;;;499    
;;;500      /*!< Configure sFLASH_CS_PIN pin: sFLASH Card CS pin */
;;;501      GPIO_InitStructure.GPIO_Pin = sFLASH_CS_PIN;
00004c  2010              MOVS     r0,#0x10
00004e  f8ad0000          STRH     r0,[sp,#0]
;;;502      GPIO_Init(sFLASH_CS_GPIO_PORT, &GPIO_InitStructure);
000052  4669              MOV      r1,sp
000054  4620              MOV      r0,r4
000056  f7fffffe          BL       GPIO_Init
;;;503    }
00005a  bd38              POP      {r3-r5,pc}
;;;504    
                          ENDP

                  |L12.92|
                          DCD      0x40013000
                  |L12.96|
                          DCD      0x40010800

                          AREA ||i.sFLASH_LowLevel_Init||, CODE, READONLY, ALIGN=2

                  sFLASH_LowLevel_Init PROC
;;;509      */
;;;510    void sFLASH_LowLevel_Init(void)
000000  b538              PUSH     {r3-r5,lr}
;;;511    {
;;;512      GPIO_InitTypeDef GPIO_InitStructure;
;;;513    
;;;514      /*!< sFLASH_SPI_CS_GPIO, sFLASH_SPI_MOSI_GPIO, sFLASH_SPI_MISO_GPIO 
;;;515           and sFLASH_SPI_SCK_GPIO Periph clock enable */
;;;516      RCC_APB2PeriphClockCmd(sFLASH_CS_GPIO_CLK | sFLASH_SPI_MOSI_GPIO_CLK | sFLASH_SPI_MISO_GPIO_CLK |
000002  2101              MOVS     r1,#1
000004  2004              MOVS     r0,#4
000006  f7fffffe          BL       RCC_APB2PeriphClockCmd
;;;517                             sFLASH_SPI_SCK_GPIO_CLK, ENABLE);
;;;518    
;;;519      /*!< sFLASH_SPI Periph clock enable */
;;;520      RCC_APB2PeriphClockCmd(sFLASH_SPI_CLK, ENABLE);
00000a  2101              MOVS     r1,#1
00000c  0308              LSLS     r0,r1,#12
00000e  f7fffffe          BL       RCC_APB2PeriphClockCmd
;;;521      
;;;522      /*!< Configure sFLASH_SPI pins: SCK */
;;;523      GPIO_InitStructure.GPIO_Pin = sFLASH_SPI_SCK_PIN;
000012  2020              MOVS     r0,#0x20
000014  f8ad0000          STRH     r0,[sp,#0]
;;;524      GPIO_InitStructure.GPIO_Speed = GPIO_Speed_50MHz;
000018  2003              MOVS     r0,#3
00001a  f88d0002          STRB     r0,[sp,#2]
;;;525      GPIO_InitStructure.GPIO_Mode = GPIO_Mode_AF_PP;
00001e  2018              MOVS     r0,#0x18
;;;526      GPIO_Init(sFLASH_SPI_SCK_GPIO_PORT, &GPIO_InitStructure);
000020  4c10              LDR      r4,|L13.100|
000022  f88d0003          STRB     r0,[sp,#3]            ;525
000026  4669              MOV      r1,sp
000028  4620              MOV      r0,r4
00002a  f7fffffe          BL       GPIO_Init
;;;527    
;;;528      /*!< Configure sFLASH_SPI pins: MOSI */
;;;529      GPIO_InitStructure.GPIO_Pin = sFLASH_SPI_MOSI_PIN;
00002e  2080              MOVS     r0,#0x80
000030  f8ad0000          STRH     r0,[sp,#0]
;;;530      GPIO_Init(sFLASH_SPI_MOSI_GPIO_PORT, &GPIO_InitStructure);
000034  4669              MOV      r1,sp
000036  4620              MOV      r0,r4
000038  f7fffffe          BL       GPIO_Init
;;;531    
;;;532      /*!< Configure sFLASH_SPI pins: MISO */
;;;533      GPIO_InitStructure.GPIO_Pin = sFLASH_SPI_MISO_PIN;
00003c  2040              MOVS     r0,#0x40
00003e  f8ad0000          STRH     r0,[sp,#0]
;;;534      GPIO_InitStructure.GPIO_Mode = GPIO_Mode_IN_FLOATING;  
000042  2004              MOVS     r0,#4
000044  f88d0003          STRB     r0,[sp,#3]
;;;535      GPIO_Init(sFLASH_SPI_MISO_GPIO_PORT, &GPIO_InitStructure);
000048  4669              MOV      r1,sp
00004a  4620              MOV      r0,r4
00004c  f7fffffe          BL       GPIO_Init
;;;536      
;;;537      /*!< Configure sFLASH_CS_PIN pin: sFLASH Card CS pin */
;;;538      GPIO_InitStructure.GPIO_Pin = sFLASH_CS_PIN;
000050  2110              MOVS     r1,#0x10
000052  f8ad1000          STRH     r1,[sp,#0]
;;;539      GPIO_InitStructure.GPIO_Mode = GPIO_Mode_Out_PP;
000056  f88d1003          STRB     r1,[sp,#3]
;;;540      GPIO_Init(sFLASH_CS_GPIO_PORT, &GPIO_InitStructure);
00005a  4669              MOV      r1,sp
00005c  4620              MOV      r0,r4
00005e  f7fffffe          BL       GPIO_Init
;;;541    }
000062  bd38              POP      {r3-r5,pc}
;;;542    
                          ENDP

                  |L13.100|
                          DCD      0x40010800

                          AREA ||.constdata||, DATA, READONLY, ALIGN=2

                  COM_TX_PIN
000000  02000020          DCW      0x0200,0x0020
                  COM_RX_PIN
000004  04000040          DCW      0x0400,0x0040
                  GPIO_PIN
000008  00400080          DCW      0x0040,0x0080
00000c  01000200          DCW      0x0100,0x0200
                  COM_USART_CLK
                          DCD      0x00004000
                          DCD      0x00020000
                  COM_TX_PORT_CLK
                          DCD      0x00000004
                          DCD      0x00000020
                  COM_RX_PORT_CLK
                          DCD      0x00000004
                          DCD      0x00000020
                  GPIO_CLK
                          DCD      0x00000010
                          DCD      0x00000010
                          DCD      0x00000010
                          DCD      0x00000010
                  BUTTON_PIN
000038  00012000          DCW      0x0001,0x2000
00003c  02000001          DCW      0x0200,0x0001
000040  00020100          DCW      0x0002,0x0100
000044  40001000          DCW      0x4000,0x1000
                  BUTTON_CLK
                          DCD      0x00000004
                          DCD      0x00000010
                          DCD      0x00000008
                          DCD      0x00000040
                          DCD      0x00000040
                          DCD      0x00000020
                          DCD      0x00000020
                          DCD      0x00000020
                  BUTTON_EXTI_LINE
000068  00012000          DCW      0x0001,0x2000
00006c  02000001          DCW      0x0200,0x0001
000070  00020100          DCW      0x0002,0x0100
000074  40001000          DCW      0x4000,0x1000
                  BUTTON_PORT_SOURCE
000078  00000002          DCW      0x0000,0x0002
00007c  00010004          DCW      0x0001,0x0004
000080  00040003          DCW      0x0004,0x0003
000084  00030003          DCW      0x0003,0x0003
                  BUTTON_PIN_SOURCE
000088  0000000d          DCW      0x0000,0x000d
00008c  00090000          DCW      0x0009,0x0000
000090  00010008          DCW      0x0001,0x0008
000094  000e000c          DCW      0x000e,0x000c
                  BUTTON_IRQn
000098  00060028          DCW      0x0006,0x0028
00009c  00170006          DCW      0x0017,0x0006
0000a0  00070017          DCW      0x0007,0x0017
0000a4  00280028          DCW      0x0028,0x0028

                          AREA ||.data||, DATA, ALIGN=2

                  COM_USART
                          DCD      0x40013800
                          DCD      0x40004400
                  COM_TX_PORT
                          DCD      0x40010800
                          DCD      0x40011400
                  COM_RX_PORT
                          DCD      0x40010800
                          DCD      0x40011400
                  GPIO_PORT
                          DCD      0x40011000
                          DCD      0x40011000
                          DCD      0x40011000
                          DCD      0x40011000
                  BUTTON_PORT
                          DCD      0x40010800
                          DCD      0x40011000
                          DCD      0x40010c00
                          DCD      0x40011800
                          DCD      0x40011800
                          DCD      0x40011400
                          DCD      0x40011400
                          DCD      0x40011400

;*** Start embedded assembler ***

#line 1 "..\\..\\..\\Utilities\\STM32_EVAL\\STM3210B_EVAL\\stm3210b_eval.c"
	AREA ||.rev16_text||, CODE
	THUMB
	EXPORT |__asm___15_stm3210b_eval_c_c84236cb____REV16|
#line 129 "D:\\Keil5\\ARM\\CMSIS\\Include\\core_cmInstr.h"
|__asm___15_stm3210b_eval_c_c84236cb____REV16| PROC
#line 130

 rev16 r0, r0
 bx lr
	ENDP
	AREA ||.revsh_text||, CODE
	THUMB
	EXPORT |__asm___15_stm3210b_eval_c_c84236cb____REVSH|
#line 144
|__asm___15_stm3210b_eval_c_c84236cb____REVSH| PROC
#line 145

 revsh r0, r0
 bx lr
	ENDP

;*** End   embedded assembler ***
